; ModuleID = '57/2384.c'
source_filename = "57/2384.c"
target datalayout = "e-m:e-p270:32:32-p271:32:32-p272:64:64-i64:64-f80:128-n8:16:32:64-S128"
target triple = "x86_64-pc-linux-gnu"

@.str = private unnamed_addr constant [3 x i8] c"%d\00", align 1
@.str.1 = private unnamed_addr constant [3 x i8] c"%s\00", align 1

; Function Attrs: noinline nounwind uwtable
define dso_local void @main() #0 {
  %1 = alloca i32, align 4
  %2 = alloca i32, align 4
  %3 = alloca i32, align 4
  %4 = alloca i32, align 4
  %5 = alloca i32, align 4
  %6 = alloca [30 x [30 x i8]], align 16
  %7 = call i32 (i8*, ...) @__isoc99_scanf(i8* getelementptr inbounds ([3 x i8], [3 x i8]* @.str, i64 0, i64 0), i32* %1)
  store i32 0, i32* %2, align 4
  br label %8

8:                                                ; preds = %81, %0
  %9 = load i32, i32* %2, align 4
  %10 = load i32, i32* %1, align 4
  %11 = icmp slt i32 %9, %10
  br i1 %11, label %12, label %84

12:                                               ; preds = %8
  %13 = load i32, i32* %2, align 4
  %14 = sext i32 %13 to i64
  %15 = getelementptr inbounds [30 x [30 x i8]], [30 x [30 x i8]]* %6, i64 0, i64 %14
  %16 = getelementptr inbounds [30 x i8], [30 x i8]* %15, i64 0, i64 0
  %17 = call i32 (i8*, ...) @__isoc99_scanf(i8* getelementptr inbounds ([3 x i8], [3 x i8]* @.str.1, i64 0, i64 0), i8* %16)
  %18 = load i32, i32* %2, align 4
  %19 = sext i32 %18 to i64
  %20 = getelementptr inbounds [30 x [30 x i8]], [30 x [30 x i8]]* %6, i64 0, i64 %19
  %21 = getelementptr inbounds [30 x i8], [30 x i8]* %20, i64 0, i64 0
  %22 = call i64 @strlen(i8* %21) #3
  %23 = trunc i64 %22 to i32
  store i32 %23, i32* %3, align 4
  %24 = load i32, i32* %2, align 4
  %25 = sext i32 %24 to i64
  %26 = getelementptr inbounds [30 x [30 x i8]], [30 x [30 x i8]]* %6, i64 0, i64 %25
  %27 = load i32, i32* %3, align 4
  %28 = sub nsw i32 %27, 1
  %29 = sext i32 %28 to i64
  %30 = getelementptr inbounds [30 x i8], [30 x i8]* %26, i64 0, i64 %29
  %31 = load i8, i8* %30, align 1
  %32 = sext i8 %31 to i32
  %33 = icmp eq i32 %32, 114
  br i1 %33, label %34, label %42

34:                                               ; preds = %12
  %35 = load i32, i32* %2, align 4
  %36 = sext i32 %35 to i64
  %37 = getelementptr inbounds [30 x [30 x i8]], [30 x [30 x i8]]* %6, i64 0, i64 %36
  %38 = load i32, i32* %3, align 4
  %39 = sub nsw i32 %38, 2
  %40 = sext i32 %39 to i64
  %41 = getelementptr inbounds [30 x i8], [30 x i8]* %37, i64 0, i64 %40
  store i8 0, i8* %41, align 1
  br label %42

42:                                               ; preds = %34, %12
  %43 = load i32, i32* %2, align 4
  %44 = sext i32 %43 to i64
  %45 = getelementptr inbounds [30 x [30 x i8]], [30 x [30 x i8]]* %6, i64 0, i64 %44
  %46 = load i32, i32* %3, align 4
  %47 = sub nsw i32 %46, 1
  %48 = sext i32 %47 to i64
  %49 = getelementptr inbounds [30 x i8], [30 x i8]* %45, i64 0, i64 %48
  %50 = load i8, i8* %49, align 1
  %51 = sext i8 %50 to i32
  %52 = icmp eq i32 %51, 121
  br i1 %52, label %53, label %61

53:                                               ; preds = %42
  %54 = load i32, i32* %2, align 4
  %55 = sext i32 %54 to i64
  %56 = getelementptr inbounds [30 x [30 x i8]], [30 x [30 x i8]]* %6, i64 0, i64 %55
  %57 = load i32, i32* %3, align 4
  %58 = sub nsw i32 %57, 2
  %59 = sext i32 %58 to i64
  %60 = getelementptr inbounds [30 x i8], [30 x i8]* %56, i64 0, i64 %59
  store i8 0, i8* %60, align 1
  br label %61

61:                                               ; preds = %53, %42
  %62 = load i32, i32* %2, align 4
  %63 = sext i32 %62 to i64
  %64 = getelementptr inbounds [30 x [30 x i8]], [30 x [30 x i8]]* %6, i64 0, i64 %63
  %65 = load i32, i32* %3, align 4
  %66 = sub nsw i32 %65, 1
  %67 = sext i32 %66 to i64
  %68 = getelementptr inbounds [30 x i8], [30 x i8]* %64, i64 0, i64 %67
  %69 = load i8, i8* %68, align 1
  %70 = sext i8 %69 to i32
  %71 = icmp eq i32 %70, 103
  br i1 %71, label %72, label %80

72:                                               ; preds = %61
  %73 = load i32, i32* %2, align 4
  %74 = sext i32 %73 to i64
  %75 = getelementptr inbounds [30 x [30 x i8]], [30 x [30 x i8]]* %6, i64 0, i64 %74
  %76 = load i32, i32* %3, align 4
  %77 = sub nsw i32 %76, 3
  %78 = sext i32 %77 to i64
  %79 = getelementptr inbounds [30 x i8], [30 x i8]* %75, i64 0, i64 %78
  store i8 0, i8* %79, align 1
  br label %80

80:                                               ; preds = %72, %61
  br label %81

81:                                               ; preds = %80
  %82 = load i32, i32* %2, align 4
  %83 = add nsw i32 %82, 1
  store i32 %83, i32* %2, align 4
  br label %8

84:                                               ; preds = %8
  store i32 0, i32* %2, align 4
  br label %85

85:                                               ; preds = %95, %84
  %86 = load i32, i32* %2, align 4
  %87 = load i32, i32* %1, align 4
  %88 = icmp slt i32 %86, %87
  br i1 %88, label %89, label %98

89:                                               ; preds = %85
  %90 = load i32, i32* %2, align 4
  %91 = sext i32 %90 to i64
  %92 = getelementptr inbounds [30 x [30 x i8]], [30 x [30 x i8]]* %6, i64 0, i64 %91
  %93 = getelementptr inbounds [30 x i8], [30 x i8]* %92, i64 0, i64 0
  %94 = call i32 @puts(i8* %93)
  br label %95

95:                                               ; preds = %89
  %96 = load i32, i32* %2, align 4
  %97 = add nsw i32 %96, 1
  store i32 %97, i32* %2, align 4
  br label %85

98:                                               ; preds = %85
  ret void
}

declare dso_local i32 @__isoc99_scanf(i8*, ...) #1

; Function Attrs: nounwind readonly
declare dso_local i64 @strlen(i8*) #2

declare dso_local i32 @puts(i8*) #1


!llvm.module.flags = !{!0}
!llvm.ident = !{!1}

!0 = !{i32 1, !"wchar_size", i32 4}
!1 = !{!"clang version 10.0.0-4ubuntu1 "}
